target datalayout = "e-m:e-p270:32:32-p271:32:32-p272:64:64-i64:64-i128:128-f80:128-n8:16:32:64-S128"
target triple = "x86_64-pc-linux-gnu"

%struct.re_registers = type { i32, i32, ptr, ptr, ptr }

; Function Attrs: nounwind uwtable
define dso_local i32 @onig_region_resize(ptr noundef %0, i32 noundef %1) #0 {
  %3 = alloca i32, align 4
  %4 = alloca ptr, align 8
  %5 = alloca i32, align 4
  store ptr %0, ptr %4, align 8, !tbaa !21
  store i32 %1, ptr %5, align 4, !tbaa !9
  %6 = load i32, ptr %5, align 4, !tbaa !9
  %7 = load ptr, ptr %4, align 8, !tbaa !21
  %8 = getelementptr inbounds nuw %struct.re_registers, ptr %7, i32 0, i32 1
  store i32 %6, ptr %8, align 4, !tbaa !27
  %9 = load i32, ptr %5, align 4, !tbaa !9
  %10 = icmp slt i32 %9, 10
  br i1 %10, label %11, label %12

11:                                               ; preds = %2
  store i32 10, ptr %5, align 4, !tbaa !9
  br label %12

12:                                               ; preds = %11, %2
  %13 = load ptr, ptr %4, align 8, !tbaa !21
  %14 = getelementptr inbounds nuw %struct.re_registers, ptr %13, i32 0, i32 0
  %15 = load i32, ptr %14, align 8, !tbaa !32
  %16 = icmp eq i32 %15, 0
  br i1 %16, label %17, label %44

17:                                               ; preds = %12
  %18 = load i32, ptr %5, align 4, !tbaa !9
  %19 = sext i32 %18 to i64
  %20 = mul i64 %19, 4
  %21 = call noalias ptr @malloc(i64 noundef %20) #10
  %22 = load ptr, ptr %4, align 8, !tbaa !21
  %23 = getelementptr inbounds nuw %struct.re_registers, ptr %22, i32 0, i32 2
  store ptr %21, ptr %23, align 8, !tbaa !29
  %24 = load i32, ptr %5, align 4, !tbaa !9
  %25 = sext i32 %24 to i64
  %26 = mul i64 %25, 4
  %27 = call noalias ptr @malloc(i64 noundef %26) #10
  %28 = load ptr, ptr %4, align 8, !tbaa !21
  %29 = getelementptr inbounds nuw %struct.re_registers, ptr %28, i32 0, i32 3
  store ptr %27, ptr %29, align 8, !tbaa !28
  %30 = load ptr, ptr %4, align 8, !tbaa !21
  %31 = getelementptr inbounds nuw %struct.re_registers, ptr %30, i32 0, i32 2
  %32 = load ptr, ptr %31, align 8, !tbaa !29
  %33 = icmp eq ptr %32, null
  br i1 %33, label %39, label %34

34:                                               ; preds = %17
  %35 = load ptr, ptr %4, align 8, !tbaa !21
  %36 = getelementptr inbounds nuw %struct.re_registers, ptr %35, i32 0, i32 3
  %37 = load ptr, ptr %36, align 8, !tbaa !28
  %38 = icmp eq ptr %37, null
  br i1 %38, label %39, label %40

39:                                               ; preds = %34, %17
  store i32 -5, ptr %3, align 4
  br label %85

40:                                               ; preds = %34
  %41 = load i32, ptr %5, align 4, !tbaa !9
  %42 = load ptr, ptr %4, align 8, !tbaa !21
  %43 = getelementptr inbounds nuw %struct.re_registers, ptr %42, i32 0, i32 0
  store i32 %41, ptr %43, align 8, !tbaa !32
  br label %84

44:                                               ; preds = %12
  %45 = load ptr, ptr %4, align 8, !tbaa !21
  %46 = getelementptr inbounds nuw %struct.re_registers, ptr %45, i32 0, i32 0
  %47 = load i32, ptr %46, align 8, !tbaa !32
  %48 = load i32, ptr %5, align 4, !tbaa !9
  %49 = icmp slt i32 %47, %48
  br i1 %49, label %50, label %83

50:                                               ; preds = %44
  %51 = load ptr, ptr %4, align 8, !tbaa !21
  %52 = getelementptr inbounds nuw %struct.re_registers, ptr %51, i32 0, i32 2
  %53 = load ptr, ptr %52, align 8, !tbaa !29
  %54 = load i32, ptr %5, align 4, !tbaa !9
  %55 = sext i32 %54 to i64
  %56 = mul i64 %55, 4
  %57 = call ptr @realloc(ptr noundef %53, i64 noundef %56) #11
  %58 = load ptr, ptr %4, align 8, !tbaa !21
  %59 = getelementptr inbounds nuw %struct.re_registers, ptr %58, i32 0, i32 2
  store ptr %57, ptr %59, align 8, !tbaa !29
  %60 = load ptr, ptr %4, align 8, !tbaa !21
  %61 = getelementptr inbounds nuw %struct.re_registers, ptr %60, i32 0, i32 3
  %62 = load ptr, ptr %61, align 8, !tbaa !28
  %63 = load i32, ptr %5, align 4, !tbaa !9
  %64 = sext i32 %63 to i64
  %65 = mul i64 %64, 4
  %66 = call ptr @realloc(ptr noundef %62, i64 noundef %65) #11
  %67 = load ptr, ptr %4, align 8, !tbaa !21
  %68 = getelementptr inbounds nuw %struct.re_registers, ptr %67, i32 0, i32 3
  store ptr %66, ptr %68, align 8, !tbaa !28
  %69 = load ptr, ptr %4, align 8, !tbaa !21
  %70 = getelementptr inbounds nuw %struct.re_registers, ptr %69, i32 0, i32 2
  %71 = load ptr, ptr %70, align 8, !tbaa !29
  %72 = icmp eq ptr %71, null
  br i1 %72, label %78, label %73

73:                                               ; preds = %50
  %74 = load ptr, ptr %4, align 8, !tbaa !21
  %75 = getelementptr inbounds nuw %struct.re_registers, ptr %74, i32 0, i32 3
  %76 = load ptr, ptr %75, align 8, !tbaa !28
  %77 = icmp eq ptr %76, null
  br i1 %77, label %78, label %79

78:                                               ; preds = %73, %50
  store i32 -5, ptr %3, align 4
  br label %85

79:                                               ; preds = %73
  %80 = load i32, ptr %5, align 4, !tbaa !9
  %81 = load ptr, ptr %4, align 8, !tbaa !21
  %82 = getelementptr inbounds nuw %struct.re_registers, ptr %81, i32 0, i32 0
  store i32 %80, ptr %82, align 8, !tbaa !32
  br label %83

83:                                               ; preds = %79, %44
  br label %84

84:                                               ; preds = %83, %40
  store i32 0, ptr %3, align 4
  br label %85

85:                                               ; preds = %84, %78, %39
  %86 = load i32, ptr %3, align 4
  ret i32 %86
}

; Function Attrs: nounwind uwtable
define dso_local i32 @onig_region_set(ptr noundef %0, i32 noundef %1, i32 noundef %2, i32 noundef %3) #0 {
  %5 = alloca i32, align 4
  %6 = alloca ptr, align 8
  %7 = alloca i32, align 4
  %8 = alloca i32, align 4
  %9 = alloca i32, align 4
  %10 = alloca i32, align 4
  %11 = alloca i32, align 4
  store ptr %0, ptr %6, align 8, !tbaa !21
  store i32 %1, ptr %7, align 4, !tbaa !9
  store i32 %2, ptr %8, align 4, !tbaa !9
  store i32 %3, ptr %9, align 4, !tbaa !9
  %12 = load i32, ptr %7, align 4, !tbaa !9
  %13 = icmp slt i32 %12, 0
  br i1 %13, label %14, label %15

14:                                               ; preds = %4
  store i32 -30, ptr %5, align 4
  br label %49

15:                                               ; preds = %4
  %16 = load i32, ptr %7, align 4, !tbaa !9
  %17 = load ptr, ptr %6, align 8, !tbaa !21
  %18 = getelementptr inbounds nuw %struct.re_registers, ptr %17, i32 0, i32 0
  %19 = load i32, ptr %18, align 8, !tbaa !32
  %20 = icmp sge i32 %16, %19
  br i1 %20, label %21, label %34

21:                                               ; preds = %15
  call void @llvm.lifetime.start.p0(i64 4, ptr %10) #9
  %22 = load ptr, ptr %6, align 8, !tbaa !21
  %23 = load i32, ptr %7, align 4, !tbaa !9
  %24 = add nsw i32 %23, 1
  %25 = call i32 @onig_region_resize(ptr noundef %22, i32 noundef %24)
  store i32 %25, ptr %10, align 4, !tbaa !9
  %26 = load i32, ptr %10, align 4, !tbaa !9
  %27 = icmp slt i32 %26, 0
  br i1 %27, label %28, label %30

28:                                               ; preds = %21
  %29 = load i32, ptr %10, align 4, !tbaa !9
  store i32 %29, ptr %5, align 4
  store i32 1, ptr %11, align 4
  br label %31

30:                                               ; preds = %21
  store i32 0, ptr %11, align 4
  br label %31

31:                                               ; preds = %30, %28
  call void @llvm.lifetime.end.p0(i64 4, ptr %10) #9
  %32 = load i32, ptr %11, align 4
  switch i32 %32, label %51 [
    i32 0, label %33
    i32 1, label %49
  ]

33:                                               ; preds = %31
  br label %34

34:                                               ; preds = %33, %15
  %35 = load i32, ptr %8, align 4, !tbaa !9
  %36 = load ptr, ptr %6, align 8, !tbaa !21
  %37 = getelementptr inbounds nuw %struct.re_registers, ptr %36, i32 0, i32 2
  %38 = load ptr, ptr %37, align 8, !tbaa !29
  %39 = load i32, ptr %7, align 4, !tbaa !9
  %40 = sext i32 %39 to i64
  %41 = getelementptr inbounds i32, ptr %38, i64 %40
  store i32 %35, ptr %41, align 4, !tbaa !9
  %42 = load i32, ptr %9, align 4, !tbaa !9
  %43 = load ptr, ptr %6, align 8, !tbaa !21
  %44 = getelementptr inbounds nuw %struct.re_registers, ptr %43, i32 0, i32 3
  %45 = load ptr, ptr %44, align 8, !tbaa !28
  %46 = load i32, ptr %7, align 4, !tbaa !9
  %47 = sext i32 %46 to i64
  %48 = getelementptr inbounds i32, ptr %45, i64 %47
  store i32 %42, ptr %48, align 4, !tbaa !9
  store i32 0, ptr %5, align 4
  br label %49

49:                                               ; preds = %34, %31, %14
  %50 = load i32, ptr %5, align 4
  ret i32 %50

51:                                               ; preds = %31
  unreachable
}